target datalayout = "e-m:e-p270:32:32-p271:32:32-p272:64:64-i64:64-i128:128-f80:128-n8:16:32:64-S128"
target triple = "x86_64-pc-linux-gnu"

%struct.mi_commit_mask_s = type { [16 x i64] }
%struct.mi_page_s = type { i32, i32, i8, i16, i16, %union.mi_page_flags_s, i8, ptr, i32, i32, ptr, i64, i64, ptr, ptr, [1 x i64] }
%union.mi_page_flags_s = type { i8 }
%struct.mi_segment_s = type { i64, i8, i8, i8, i8, i64, %struct.mi_commit_mask_s, %struct.mi_commit_mask_s, ptr, ptr, i64, i64, i64, i64, i64, i64, i32, i64, i64, [1024 x %struct.mi_page_s] }

; Function Attrs: inlinehint nounwind uwtable
define internal ptr @_mi_ptr_segment(ptr noundef %0) #2 {
  %2 = alloca ptr, align 8
  store ptr %0, ptr %2, align 8, !tbaa !82
  %3 = load ptr, ptr %2, align 8, !tbaa !82
  %4 = ptrtoint ptr %3 to i64
  %5 = and i64 %4, -67108864
  %6 = inttoptr i64 %5 to ptr
  ret ptr %6
}

; Function Attrs: inlinehint nounwind uwtable
define internal ptr @_mi_page_segment(ptr noundef %0) #2 {
  %2 = alloca ptr, align 8
  %3 = alloca ptr, align 8
  store ptr %0, ptr %2, align 8, !tbaa !21
  call void @llvm.lifetime.start.p0(i64 8, ptr %3) #7
  %4 = load ptr, ptr %2, align 8, !tbaa !21
  %5 = call ptr @_mi_ptr_segment(ptr noundef %4)
  store ptr %5, ptr %3, align 8, !tbaa !19
  %6 = load ptr, ptr %3, align 8, !tbaa !19
  call void @llvm.lifetime.end.p0(i64 8, ptr %3) #7
  ret ptr %6
}

; Function Attrs: nounwind uwtable
define hidden void @_mi_segment_page_free(ptr noundef %0, i1 noundef zeroext %1, ptr noundef %2) #0 {
  %4 = alloca ptr, align 8
  %5 = alloca i8, align 1
  %6 = alloca ptr, align 8
  %7 = alloca ptr, align 8
  store ptr %0, ptr %4, align 8, !tbaa !21
  %8 = zext i1 %1 to i8
  store i8 %8, ptr %5, align 1, !tbaa !33
  store ptr %2, ptr %6, align 8, !tbaa !31
  call void @llvm.lifetime.start.p0(i64 8, ptr %7) #7
  %9 = load ptr, ptr %4, align 8, !tbaa !21
  %10 = call ptr @_mi_page_segment(ptr noundef %9)
  store ptr %10, ptr %7, align 8, !tbaa !19
  %11 = load ptr, ptr %4, align 8, !tbaa !21
  %12 = load ptr, ptr %6, align 8, !tbaa !31
  %13 = call ptr @mi_segment_page_clear(ptr noundef %11, ptr noundef %12)
  %14 = load ptr, ptr %7, align 8, !tbaa !19
  %15 = getelementptr inbounds nuw %struct.mi_segment_s, ptr %14, i32 0, i32 12
  %16 = load i64, ptr %15, align 8, !tbaa !35
  %17 = icmp eq i64 %16, 0
  br i1 %17, label %18, label %23

18:                                               ; preds = %3
  %19 = load ptr, ptr %7, align 8, !tbaa !19
  %20 = load i8, ptr %5, align 1, !tbaa !33, !range !38, !noundef !39
  %21 = trunc i8 %20 to i1
  %22 = load ptr, ptr %6, align 8, !tbaa !31
  call void @mi_segment_free(ptr noundef %19, i1 noundef zeroext %21, ptr noundef %22)
  br label %35

23:                                               ; preds = %3
  %24 = load ptr, ptr %7, align 8, !tbaa !19
  %25 = getelementptr inbounds nuw %struct.mi_segment_s, ptr %24, i32 0, i32 12
  %26 = load i64, ptr %25, align 8, !tbaa !35
  %27 = load ptr, ptr %7, align 8, !tbaa !19
  %28 = getelementptr inbounds nuw %struct.mi_segment_s, ptr %27, i32 0, i32 10
  %29 = load i64, ptr %28, align 8, !tbaa !40
  %30 = icmp eq i64 %26, %29
  br i1 %30, label %31, label %34

31:                                               ; preds = %23
  %32 = load ptr, ptr %7, align 8, !tbaa !19
  %33 = load ptr, ptr %6, align 8, !tbaa !31
  call void @mi_segment_abandon(ptr noundef %32, ptr noundef %33)
  br label %34

34:                                               ; preds = %31, %23
  br label %35

35:                                               ; preds = %34, %18
  call void @llvm.lifetime.end.p0(i64 8, ptr %7) #7
  ret void
}