; Function Attrs: nounwind uwtable
define hidden void @_mi_segment_page_free(ptr noundef %0, i1 noundef zeroext %1, ptr noundef captures(address) %2) local_unnamed_addr #5 {
  %4 = ptrtoint ptr %0 to i64
  %5 = and i64 %4, -67108864
  %6 = inttoptr i64 %5 to ptr
  %7 = tail call fastcc ptr @mi_segment_page_clear(ptr noundef %0, ptr noundef %2)
  %8 = getelementptr inbounds nuw i8, ptr %6, i64 312
  %9 = load i64, ptr %8, align 8, !tbaa !22
  %10 = icmp eq i64 %9, 0
  br i1 %10, label %11, label %12

11:                                               ; preds = %3
  tail call fastcc void @mi_segment_free(ptr noundef nonnull %6, ptr noundef %2)
  br label %17

12:                                               ; preds = %3
  %13 = getelementptr inbounds nuw i8, ptr %6, i64 296
  %14 = load i64, ptr %13, align 8, !tbaa !27
  %15 = icmp eq i64 %9, %14
  br i1 %15, label %16, label %17

16:                                               ; preds = %12
  tail call fastcc void @mi_segment_abandon(ptr noundef nonnull %6, ptr noundef %2)
  br label %17

17:                                               ; preds = %12, %16, %11
  ret void
}